; Function Attrs: mustprogress uwtable
define noundef nonnull ptr @_ZNK6casadi7QpToNlp9alloc_memEv(ptr noundef nonnull align 8 dereferenceable(1480) %0) unnamed_addr #3 align 2 personality ptr @__gxx_personality_v0 {
  %2 = tail call noalias noundef nonnull dereferenceable(200) ptr @_Znwm(i64 noundef 200) #20
  %3 = getelementptr inbounds i8, ptr %2, i64 8
  store i32 0, ptr %3, align 8
  %4 = getelementptr inbounds i8, ptr %2, i64 16
  store ptr null, ptr %4, align 8
  %5 = getelementptr inbounds i8, ptr %2, i64 24
  store ptr %3, ptr %5, align 8
  %6 = getelementptr inbounds i8, ptr %2, i64 32
  store ptr %3, ptr %6, align 8
  %7 = getelementptr inbounds i8, ptr %2, i64 40
  store i64 0, ptr %7, align 8
  %8 = getelementptr inbounds i8, ptr %0, i64 1472
  %9 = tail call noundef i64 @_ZNK6casadi8Function8checkoutEv(ptr noundef nonnull align 8 dereferenceable(8) %8)
  %10 = getelementptr inbounds i8, ptr %2, i64 192
  store i64 %9, ptr %10, align 8
  ret ptr %2
}